; ModuleID = 'source-C-CXX/59/861.c'
source_filename = "source-C-CXX/59/861.c"
target datalayout = "e-m:e-p270:32:32-p271:32:32-p272:64:64-i64:64-f80:128-n8:16:32:64-S128"
target triple = "x86_64-pc-linux-gnu"

@.str = private unnamed_addr constant [3 x i8] c"%d\00", align 1
@.str.1 = private unnamed_addr constant [7 x i8] c"%d %d\0A\00", align 1
@.str.2 = private unnamed_addr constant [6 x i8] c"empty\00", align 1

; Function Attrs: nofree nounwind sspstrong uwtable
define dso_local i32 @main() local_unnamed_addr #0 {
  %1 = alloca i32, align 4
  %2 = bitcast i32* %1 to i8*
  call void @llvm.lifetime.start.p0i8(i64 4, i8* nonnull %2) #3
  %3 = call i32 (i8*, ...) @__isoc99_scanf(i8* getelementptr inbounds ([3 x i8], [3 x i8]* @.str, i64 0, i64 0), i32* nonnull %1)
  %4 = load i32, i32* %1, align 4, !tbaa !5
  %5 = icmp slt i32 %4, 3
  br i1 %5, label %42, label %6

6:                                                ; preds = %0, %35
  %7 = phi i32 [ %36, %35 ], [ %4, %0 ]
  %8 = phi i32 [ %37, %35 ], [ 0, %0 ]
  %9 = phi i32 [ %38, %35 ], [ 3, %0 ]
  br label %10

10:                                               ; preds = %6, %14
  %11 = phi i32 [ %12, %14 ], [ %9, %6 ]
  %12 = add nsw i32 %11, -1
  %13 = icmp sgt i32 %11, 2
  br i1 %13, label %14, label %17

14:                                               ; preds = %10
  %15 = srem i32 %9, %12
  %16 = icmp eq i32 %15, 0
  br i1 %16, label %35, label %10, !llvm.loop !9

17:                                               ; preds = %10
  %18 = add nsw i32 %9, -2
  %19 = icmp sgt i32 %18, %7
  br i1 %19, label %35, label %20

20:                                               ; preds = %17
  %21 = add nsw i32 %9, -3
  %22 = icmp ugt i32 %9, 4
  br i1 %22, label %23, label %30

23:                                               ; preds = %20, %27
  %24 = phi i32 [ %28, %27 ], [ %21, %20 ]
  %25 = srem i32 %18, %24
  %26 = icmp eq i32 %25, 0
  br i1 %26, label %35, label %27

27:                                               ; preds = %23
  %28 = add nsw i32 %24, -1
  %29 = icmp sgt i32 %24, 2
  br i1 %29, label %23, label %32, !llvm.loop !11

30:                                               ; preds = %20
  %31 = icmp eq i32 %21, 1
  br i1 %31, label %32, label %35

32:                                               ; preds = %27, %30
  %33 = call i32 (i8*, ...) @printf(i8* nonnull dereferenceable(1) getelementptr inbounds ([7 x i8], [7 x i8]* @.str.1, i64 0, i64 0), i32 %18, i32 %9)
  %34 = load i32, i32* %1, align 4, !tbaa !5
  br label %35

35:                                               ; preds = %14, %23, %30, %32, %17
  %36 = phi i32 [ %34, %32 ], [ %7, %30 ], [ %7, %17 ], [ %7, %23 ], [ %7, %14 ]
  %37 = phi i32 [ 1, %32 ], [ %8, %30 ], [ %8, %17 ], [ %8, %23 ], [ %8, %14 ]
  %38 = add nuw nsw i32 %9, 1
  %39 = icmp slt i32 %9, %36
  br i1 %39, label %6, label %40, !llvm.loop !12

40:                                               ; preds = %35
  %41 = icmp eq i32 %37, 0
  br i1 %41, label %42, label %44

42:                                               ; preds = %0, %40
  %43 = call i32 (i8*, ...) @printf(i8* nonnull dereferenceable(1) getelementptr inbounds ([6 x i8], [6 x i8]* @.str.2, i64 0, i64 0))
  br label %44

44:                                               ; preds = %42, %40
  call void @llvm.lifetime.end.p0i8(i64 4, i8* nonnull %2) #3
  ret i32 0
}

; Function Attrs: argmemonly mustprogress nofree nosync nounwind willreturn
declare void @llvm.lifetime.start.p0i8(i64 immarg, i8* nocapture) #1

; Function Attrs: nofree nounwind
declare noundef i32 @__isoc99_scanf(i8* nocapture noundef readonly, ...) local_unnamed_addr #2

; Function Attrs: nofree nounwind
declare noundef i32 @printf(i8* nocapture noundef readonly, ...) local_unnamed_addr #2

; Function Attrs: argmemonly mustprogress nofree nosync nounwind willreturn
declare void @llvm.lifetime.end.p0i8(i64 immarg, i8* nocapture) #1


!llvm.module.flags = !{!0, !1, !2, !3}
!llvm.ident = !{!4}

!0 = !{i32 1, !"wchar_size", i32 4}
!1 = !{i32 7, !"PIC Level", i32 2}
!2 = !{i32 7, !"PIE Level", i32 2}
!3 = !{i32 7, !"uwtable", i32 1}
!4 = !{!"clang version 13.0.0"}
!5 = !{!6, !6, i64 0}
!6 = !{!"int", !7, i64 0}
!7 = !{!"omnipotent char", !8, i64 0}
!8 = !{!"Simple C/C++ TBAA"}
!9 = distinct !{!9, !10}
!10 = !{!"llvm.loop.mustprogress"}
!11 = distinct !{!11, !10}
!12 = distinct !{!12, !10}
